target datalayout = "e-m:e-p270:32:32-p271:32:32-p272:64:64-i64:64-i128:128-f80:128-n8:16:32:64-S128"
target triple = "x86_64-pc-linux-gnu"

%struct.algorithm_data_st = type { ptr, i32, ptr, ptr, ptr, ptr, ptr, ptr }

; Function Attrs: nounwind uwtable
define void @ossl_algorithm_do_all(ptr noundef %0, i32 noundef %1, ptr noundef %2, ptr noundef %3, ptr noundef %4, ptr noundef %5, ptr noundef %6, ptr noundef %7, ptr noundef %8) #0 {
  %10 = alloca ptr, align 8
  %11 = alloca i32, align 4
  %12 = alloca ptr, align 8
  %13 = alloca ptr, align 8
  %14 = alloca ptr, align 8
  %15 = alloca ptr, align 8
  %16 = alloca ptr, align 8
  %17 = alloca ptr, align 8
  %18 = alloca ptr, align 8
  %19 = alloca %struct.algorithm_data_st, align 8
  %20 = alloca ptr, align 8
  %21 = alloca i32, align 4
  store ptr %0, ptr %10, align 8, !tbaa !3
  store i32 %1, ptr %11, align 4, !tbaa !8
  store ptr %2, ptr %12, align 8, !tbaa !10
  store ptr %3, ptr %13, align 8, !tbaa !12
  store ptr %4, ptr %14, align 8, !tbaa !12
  store ptr %5, ptr %15, align 8, !tbaa !12
  store ptr %6, ptr %16, align 8, !tbaa !12
  store ptr %7, ptr %17, align 8, !tbaa !12
  store ptr %8, ptr %18, align 8, !tbaa !12
  call void @llvm.lifetime.start.p0(i64 64, ptr %19) #6
  call void @llvm.memset.p0.i64(ptr align 8 %19, i8 0, i64 64, i1 false)
  %22 = load ptr, ptr %10, align 8, !tbaa !3
  %23 = getelementptr inbounds nuw %struct.algorithm_data_st, ptr %19, i32 0, i32 0
  store ptr %22, ptr %23, align 8, !tbaa !13
  %24 = load i32, ptr %11, align 4, !tbaa !8
  %25 = getelementptr inbounds nuw %struct.algorithm_data_st, ptr %19, i32 0, i32 1
  store i32 %24, ptr %25, align 8, !tbaa !15
  %26 = load ptr, ptr %13, align 8, !tbaa !12
  %27 = getelementptr inbounds nuw %struct.algorithm_data_st, ptr %19, i32 0, i32 2
  store ptr %26, ptr %27, align 8, !tbaa !16
  %28 = load ptr, ptr %14, align 8, !tbaa !12
  %29 = getelementptr inbounds nuw %struct.algorithm_data_st, ptr %19, i32 0, i32 3
  store ptr %28, ptr %29, align 8, !tbaa !17
  %30 = load ptr, ptr %15, align 8, !tbaa !12
  %31 = getelementptr inbounds nuw %struct.algorithm_data_st, ptr %19, i32 0, i32 4
  store ptr %30, ptr %31, align 8, !tbaa !18
  %32 = load ptr, ptr %16, align 8, !tbaa !12
  %33 = getelementptr inbounds nuw %struct.algorithm_data_st, ptr %19, i32 0, i32 5
  store ptr %32, ptr %33, align 8, !tbaa !19
  %34 = load ptr, ptr %17, align 8, !tbaa !12
  %35 = getelementptr inbounds nuw %struct.algorithm_data_st, ptr %19, i32 0, i32 6
  store ptr %34, ptr %35, align 8, !tbaa !20
  %36 = load ptr, ptr %18, align 8, !tbaa !12
  %37 = getelementptr inbounds nuw %struct.algorithm_data_st, ptr %19, i32 0, i32 7
  store ptr %36, ptr %37, align 8, !tbaa !21
  %38 = load ptr, ptr %12, align 8, !tbaa !10
  %39 = icmp eq ptr %38, null
  br i1 %39, label %40, label %43

40:                                               ; preds = %9
  %41 = load ptr, ptr %10, align 8, !tbaa !3
  %42 = call i32 @ossl_provider_doall_activated(ptr noundef %41, ptr noundef @algorithm_do_this, ptr noundef %19)
  br label %68

43:                                               ; preds = %9
  call void @llvm.lifetime.start.p0(i64 8, ptr %20) #6
  %44 = load ptr, ptr %12, align 8, !tbaa !10
  %45 = call ptr @ossl_provider_libctx(ptr noundef %44)
  store ptr %45, ptr %20, align 8, !tbaa !3
  %46 = load ptr, ptr %10, align 8, !tbaa !3
  %47 = call ptr @ossl_lib_ctx_get_concrete(ptr noundef %46)
  %48 = load ptr, ptr %20, align 8, !tbaa !3
  %49 = call ptr @ossl_lib_ctx_get_concrete(ptr noundef %48)
  %50 = icmp eq ptr %47, %49
  %51 = zext i1 %50 to i32
  %52 = icmp ne i32 %51, 0
  %53 = xor i1 %52, true
  %54 = xor i1 %53, true
  %55 = zext i1 %54 to i32
  %56 = sext i32 %55 to i64
  %57 = call i64 @llvm.expect.i64(i64 %56, i64 1)
  %58 = icmp ne i64 %57, 0
  br i1 %58, label %60, label %59

59:                                               ; preds = %43
  store i32 1, ptr %21, align 4
  br label %65

60:                                               ; preds = %43
  %61 = load ptr, ptr %20, align 8, !tbaa !3
  %62 = getelementptr inbounds nuw %struct.algorithm_data_st, ptr %19, i32 0, i32 0
  store ptr %61, ptr %62, align 8, !tbaa !13
  %63 = load ptr, ptr %12, align 8, !tbaa !10
  %64 = call i32 @algorithm_do_this(ptr noundef %63, ptr noundef %19)
  store i32 0, ptr %21, align 4
  br label %65

65:                                               ; preds = %60, %59
  call void @llvm.lifetime.end.p0(i64 8, ptr %20) #6
  %66 = load i32, ptr %21, align 4
  switch i32 %66, label %69 [
    i32 0, label %67
  ]

67:                                               ; preds = %65
  br label %68

68:                                               ; preds = %67, %40
  store i32 0, ptr %21, align 4
  br label %69

69:                                               ; preds = %68, %65
  call void @llvm.lifetime.end.p0(i64 64, ptr %19) #6
  %70 = load i32, ptr %21, align 4
  switch i32 %70, label %72 [
    i32 0, label %71
    i32 1, label %71
  ]

71:                                               ; preds = %69, %69
  ret void

72:                                               ; preds = %69
  unreachable
}