; Function Attrs: nounwind uwtable
define void @ossl_algorithm_do_all(ptr noundef %0, i32 noundef %1, ptr noundef %2, ptr noundef %3, ptr noundef %4, ptr noundef %5, ptr noundef %6, ptr noundef %7, ptr noundef %8) local_unnamed_addr #0 {
  %10 = alloca %struct.algorithm_data_st, align 8
  call void @llvm.lifetime.start.p0(i64 64, ptr nonnull %10) #5
  %11 = getelementptr inbounds nuw i8, ptr %10, i64 8
  store i64 0, ptr %11, align 8
  store ptr %0, ptr %10, align 8, !tbaa !3
  %12 = getelementptr inbounds nuw i8, ptr %10, i64 8
  store i32 %1, ptr %12, align 8, !tbaa !10
  %13 = getelementptr inbounds nuw i8, ptr %10, i64 16
  store ptr %3, ptr %13, align 8, !tbaa !11
  %14 = getelementptr inbounds nuw i8, ptr %10, i64 24
  store ptr %4, ptr %14, align 8, !tbaa !12
  %15 = getelementptr inbounds nuw i8, ptr %10, i64 32
  store ptr %5, ptr %15, align 8, !tbaa !13
  %16 = getelementptr inbounds nuw i8, ptr %10, i64 40
  store ptr %6, ptr %16, align 8, !tbaa !14
  %17 = getelementptr inbounds nuw i8, ptr %10, i64 48
  store ptr %7, ptr %17, align 8, !tbaa !15
  %18 = getelementptr inbounds nuw i8, ptr %10, i64 56
  store ptr %8, ptr %18, align 8, !tbaa !16
  %19 = icmp eq ptr %2, null
  br i1 %19, label %20, label %22

20:                                               ; preds = %9
  %21 = call i32 @ossl_provider_doall_activated(ptr noundef %0, ptr noundef nonnull @algorithm_do_this, ptr noundef nonnull %10) #5
  br label %.critedge

22:                                               ; preds = %9
  %23 = tail call ptr @ossl_provider_libctx(ptr noundef nonnull %2) #5
  %24 = tail call ptr @ossl_lib_ctx_get_concrete(ptr noundef %0) #5
  %25 = tail call ptr @ossl_lib_ctx_get_concrete(ptr noundef %23) #5
  %26 = icmp eq ptr %24, %25
  br i1 %26, label %27, label %.critedge, !prof !17

27:                                               ; preds = %22
  store ptr %23, ptr %10, align 8, !tbaa !3
  %28 = call i32 @algorithm_do_this(ptr noundef nonnull %2, ptr noundef nonnull %10)
  br label %.critedge

.critedge:                                        ; preds = %27, %22, %20
  call void @llvm.lifetime.end.p0(i64 64, ptr nonnull %10) #5
  ret void
}